target datalayout = "e-m:e-p270:32:32-p271:32:32-p272:64:64-i64:64-i128:128-f80:128-n8:16:32:64-S128"
target triple = "x86_64-pc-linux-gnu"

%struct.strbuf = type { i64, i64, ptr }
%struct.key_value_info = type { ptr, i32, i32, i32, ptr }
%struct.config_include_data = type { i32, ptr, ptr, ptr, ptr, ptr, ptr }

@.str.8 = private unnamed_addr constant [1 x i8] zeroinitializer, align 1
@.str.74 = private unnamed_addr constant [23 x i8] c"missing value for '%s'\00", align 1
@git_gettext_enabled = external global i32, align 4
@.str.206 = private unnamed_addr constant [13 x i8] c"include.path\00", align 1
@__const.handle_path_include.buf = private unnamed_addr constant %struct.strbuf { i64 0, i64 0, ptr @strbuf_slopbuf }, align 8
@.str.209 = private unnamed_addr constant [35 x i8] c"could not expand include path '%s'\00", align 1
@.str.210 = private unnamed_addr constant [46 x i8] c"relative config includes must come from files\00", align 1
@include_depth_advice = internal constant [105 x i8] c"exceeded maximum include depth (%d) while including\0A\09%s\0Afrom\0A\09%s\0AThis might be due to circular includes.\00", align 16
@.str.211 = private unnamed_addr constant [10 x i8] c"<unknown>\00", align 1
@.str.212 = private unnamed_addr constant [17 x i8] c"the command line\00", align 1

; Function Attrs: inlinehint nounwind uwtable
define internal i32 @git_has_dos_drive_prefix(ptr noundef %0) #6 {
  %2 = alloca ptr, align 8
  store ptr %0, ptr %2, align 8, !tbaa !4
  ret i32 0
}

; Function Attrs: inlinehint nounwind uwtable
define internal i32 @git_is_dir_sep(i32 noundef %0) #6 {
  %2 = alloca i32, align 4
  store i32 %0, ptr %2, align 4, !tbaa !13
  %3 = load i32, ptr %2, align 4, !tbaa !13
  %4 = icmp eq i32 %3, 47
  %5 = zext i1 %4 to i32
  ret i32 %5
}

; Function Attrs: inlinehint nounwind uwtable
define internal void @strbuf_addstr(ptr noundef %0, ptr noundef %1) #6 {
  %3 = alloca ptr, align 8
  %4 = alloca ptr, align 8
  store ptr %0, ptr %3, align 8, !tbaa !33
  store ptr %1, ptr %4, align 8, !tbaa !4
  %5 = load ptr, ptr %3, align 8, !tbaa !33
  %6 = load ptr, ptr %4, align 8, !tbaa !4
  %7 = load ptr, ptr %4, align 8, !tbaa !4
  %8 = call i64 @strlen(ptr noundef %7) #14
  call void @strbuf_add(ptr noundef %5, ptr noundef %6, i64 noundef %8)
  ret void
}

; Function Attrs: inlinehint nounwind uwtable
define internal ptr @git_find_last_dir_sep(ptr noundef %0) #6 {
  %2 = alloca ptr, align 8
  store ptr %0, ptr %2, align 8, !tbaa !4
  %3 = load ptr, ptr %2, align 8, !tbaa !4
  %4 = call ptr @strrchr(ptr noundef %3, i32 noundef 47) #14
  ret ptr %4
}

; Function Attrs: inlinehint nounwind uwtable
define internal i32 @is_absolute_path(ptr noundef %0) #6 {
  %2 = alloca ptr, align 8
  store ptr %0, ptr %2, align 8, !tbaa !4
  %3 = load ptr, ptr %2, align 8, !tbaa !4
  %4 = getelementptr inbounds i8, ptr %3, i64 0
  %5 = load i8, ptr %4, align 1, !tbaa !9
  %6 = sext i8 %5 to i32
  %7 = call i32 @git_is_dir_sep(i32 noundef %6)
  %8 = icmp ne i32 %7, 0
  br i1 %8, label %13, label %9

9:                                                ; preds = %1
  %10 = load ptr, ptr %2, align 8, !tbaa !4
  %11 = call i32 @git_has_dos_drive_prefix(ptr noundef %10)
  %12 = icmp ne i32 %11, 0
  br label %13

13:                                               ; preds = %9, %1
  %14 = phi i1 [ true, %1 ], [ %12, %9 ]
  %15 = zext i1 %14 to i32
  ret i32 %15
}

; Function Attrs: inlinehint nounwind uwtable
define internal ptr @_(ptr noundef %0) #6 {
  %2 = alloca ptr, align 8
  %3 = alloca ptr, align 8
  store ptr %0, ptr %3, align 8, !tbaa !4
  %4 = load ptr, ptr %3, align 8, !tbaa !4
  %5 = load i8, ptr %4, align 1, !tbaa !9
  %6 = icmp ne i8 %5, 0
  br i1 %6, label %8, label %7

7:                                                ; preds = %1
  store ptr @.str.8, ptr %2, align 8
  br label %16

8:                                                ; preds = %1
  %9 = load i32, ptr @git_gettext_enabled, align 4, !tbaa !13
  %10 = icmp ne i32 %9, 0
  br i1 %10, label %13, label %11

11:                                               ; preds = %8
  %12 = load ptr, ptr %3, align 8, !tbaa !4
  store ptr %12, ptr %2, align 8
  br label %16

13:                                               ; preds = %8
  %14 = load ptr, ptr %3, align 8, !tbaa !4
  %15 = call ptr @dcgettext(ptr noundef null, ptr noundef %14, i32 noundef 5) #13
  store ptr %15, ptr %2, align 8
  br label %16

16:                                               ; preds = %13, %11, %7
  %17 = load ptr, ptr %2, align 8
  ret ptr %17
}

; Function Attrs: inlinehint nounwind uwtable
define internal i32 @const_error() #6 {
  ret i32 -1
}

; Function Attrs: nounwind uwtable
define dso_local i32 @config_error_nonbool(ptr noundef %0) #0 {
  %2 = alloca ptr, align 8
  store ptr %0, ptr %2, align 8, !tbaa !4
  %3 = call ptr @_(ptr noundef @.str.74)
  %4 = load ptr, ptr %2, align 8, !tbaa !4
  %5 = call i32 (ptr, ...) @error(ptr noundef %3, ptr noundef %4)
  %6 = call i32 @const_error()
  ret i32 %6
}

; Function Attrs: nounwind uwtable
define internal i32 @handle_path_include(ptr noundef %0, ptr noundef %1, ptr noundef %2) #0 {
  %4 = alloca i32, align 4
  %5 = alloca ptr, align 8
  %6 = alloca ptr, align 8
  %7 = alloca ptr, align 8
  %8 = alloca i32, align 4
  %9 = alloca %struct.strbuf, align 8
  %10 = alloca ptr, align 8
  %11 = alloca i32, align 4
  %12 = alloca ptr, align 8
  store ptr %0, ptr %5, align 8, !tbaa !22
  store ptr %1, ptr %6, align 8, !tbaa !4
  store ptr %2, ptr %7, align 8, !tbaa !83
  call void @llvm.lifetime.start.p0(i64 4, ptr %8) #13
  store i32 0, ptr %8, align 4, !tbaa !13
  call void @llvm.lifetime.start.p0(i64 24, ptr %9) #13
  call void @llvm.memcpy.p0.p0.i64(ptr align 8 %9, ptr align 8 @__const.handle_path_include.buf, i64 24, i1 false)
  call void @llvm.lifetime.start.p0(i64 8, ptr %10) #13
  %13 = load ptr, ptr %6, align 8, !tbaa !4
  %14 = icmp ne ptr %13, null
  br i1 %14, label %18, label %15

15:                                               ; preds = %3
  %16 = call i32 @config_error_nonbool(ptr noundef @.str.206)
  %17 = call i32 @const_error()
  store i32 %17, ptr %4, align 4
  store i32 1, ptr %11, align 4
  br label %116

18:                                               ; preds = %3
  %19 = load ptr, ptr %6, align 8, !tbaa !4
  %20 = call ptr @interpolate_path(ptr noundef %19, i32 noundef 0)
  store ptr %20, ptr %10, align 8, !tbaa !4
  %21 = load ptr, ptr %10, align 8, !tbaa !4
  %22 = icmp ne ptr %21, null
  br i1 %22, label %28, label %23

23:                                               ; preds = %18
  %24 = call ptr @_(ptr noundef @.str.209)
  %25 = load ptr, ptr %6, align 8, !tbaa !4
  %26 = call i32 (ptr, ...) @error(ptr noundef %24, ptr noundef %25)
  %27 = call i32 @const_error()
  store i32 %27, ptr %4, align 4
  store i32 1, ptr %11, align 4
  br label %116

28:                                               ; preds = %18
  %29 = load ptr, ptr %10, align 8, !tbaa !4
  store ptr %29, ptr %6, align 8, !tbaa !4
  %30 = load ptr, ptr %6, align 8, !tbaa !4
  %31 = call i32 @is_absolute_path(ptr noundef %30)
  %32 = icmp ne i32 %31, 0
  br i1 %32, label %71, label %33

33:                                               ; preds = %28
  call void @llvm.lifetime.start.p0(i64 8, ptr %12) #13
  %34 = load ptr, ptr %5, align 8, !tbaa !22
  %35 = icmp ne ptr %34, null
  br i1 %35, label %36, label %41

36:                                               ; preds = %33
  %37 = load ptr, ptr %5, align 8, !tbaa !22
  %38 = getelementptr inbounds nuw %struct.key_value_info, ptr %37, i32 0, i32 4
  %39 = load ptr, ptr %38, align 8, !tbaa !29
  %40 = icmp ne ptr %39, null
  br i1 %40, label %45, label %41

41:                                               ; preds = %36, %33
  %42 = call ptr @_(ptr noundef @.str.210)
  %43 = call i32 (ptr, ...) @error(ptr noundef %42)
  %44 = call i32 @const_error()
  store i32 %44, ptr %8, align 4, !tbaa !13
  store i32 2, ptr %11, align 4
  br label %68

45:                                               ; preds = %36
  %46 = load ptr, ptr %5, align 8, !tbaa !22
  %47 = getelementptr inbounds nuw %struct.key_value_info, ptr %46, i32 0, i32 4
  %48 = load ptr, ptr %47, align 8, !tbaa !29
  %49 = call ptr @git_find_last_dir_sep(ptr noundef %48)
  store ptr %49, ptr %12, align 8, !tbaa !4
  %50 = load ptr, ptr %12, align 8, !tbaa !4
  %51 = icmp ne ptr %50, null
  br i1 %51, label %52, label %64

52:                                               ; preds = %45
  %53 = load ptr, ptr %5, align 8, !tbaa !22
  %54 = getelementptr inbounds nuw %struct.key_value_info, ptr %53, i32 0, i32 4
  %55 = load ptr, ptr %54, align 8, !tbaa !29
  %56 = load ptr, ptr %12, align 8, !tbaa !4
  %57 = load ptr, ptr %5, align 8, !tbaa !22
  %58 = getelementptr inbounds nuw %struct.key_value_info, ptr %57, i32 0, i32 4
  %59 = load ptr, ptr %58, align 8, !tbaa !29
  %60 = ptrtoint ptr %56 to i64
  %61 = ptrtoint ptr %59 to i64
  %62 = sub i64 %60, %61
  %63 = add nsw i64 %62, 1
  call void @strbuf_add(ptr noundef %9, ptr noundef %55, i64 noundef %63)
  br label %64

64:                                               ; preds = %52, %45
  %65 = load ptr, ptr %6, align 8, !tbaa !4
  call void @strbuf_addstr(ptr noundef %9, ptr noundef %65)
  %66 = getelementptr inbounds nuw %struct.strbuf, ptr %9, i32 0, i32 2
  %67 = load ptr, ptr %66, align 8, !tbaa !10
  store ptr %67, ptr %6, align 8, !tbaa !4
  store i32 0, ptr %11, align 4
  br label %68

68:                                               ; preds = %41, %64
  call void @llvm.lifetime.end.p0(i64 8, ptr %12) #13
  %69 = load i32, ptr %11, align 4
  switch i32 %69, label %116 [
    i32 0, label %70
    i32 2, label %113
  ]

70:                                               ; preds = %68
  br label %71

71:                                               ; preds = %70, %28
  %72 = load ptr, ptr %6, align 8, !tbaa !4
  %73 = call i32 @access_or_die(ptr noundef %72, i32 noundef 4, i32 noundef 0)
  %74 = icmp ne i32 %73, 0
  br i1 %74, label %112, label %75

75:                                               ; preds = %71
  %76 = load ptr, ptr %7, align 8, !tbaa !83
  %77 = getelementptr inbounds nuw %struct.config_include_data, ptr %76, i32 0, i32 0
  %78 = load i32, ptr %77, align 8, !tbaa !221
  %79 = add nsw i32 %78, 1
  store i32 %79, ptr %77, align 8, !tbaa !221
  %80 = icmp sgt i32 %79, 10
  br i1 %80, label %81, label %101

81:                                               ; preds = %75
  %82 = call ptr @_(ptr noundef @include_depth_advice)
  %83 = load ptr, ptr %6, align 8, !tbaa !4
  %84 = load ptr, ptr %5, align 8, !tbaa !22
  %85 = icmp ne ptr %84, null
  br i1 %85, label %87, label %86

86:                                               ; preds = %81
  br label %99

87:                                               ; preds = %81
  %88 = load ptr, ptr %5, align 8, !tbaa !22
  %89 = getelementptr inbounds nuw %struct.key_value_info, ptr %88, i32 0, i32 0
  %90 = load ptr, ptr %89, align 8, !tbaa !24
  %91 = icmp ne ptr %90, null
  br i1 %91, label %92, label %96

92:                                               ; preds = %87
  %93 = load ptr, ptr %5, align 8, !tbaa !22
  %94 = getelementptr inbounds nuw %struct.key_value_info, ptr %93, i32 0, i32 0
  %95 = load ptr, ptr %94, align 8, !tbaa !24
  br label %97

96:                                               ; preds = %87
  br label %97

97:                                               ; preds = %96, %92
  %98 = phi ptr [ %95, %92 ], [ @.str.212, %96 ]
  br label %99

99:                                               ; preds = %97, %86
  %100 = phi ptr [ @.str.211, %86 ], [ %98, %97 ]
  call void (ptr, ...) @die(ptr noundef %82, i32 noundef 10, ptr noundef %83, ptr noundef %100) #15
  unreachable

101:                                              ; preds = %75
  %102 = load ptr, ptr %6, align 8, !tbaa !4
  %103 = load ptr, ptr %7, align 8, !tbaa !83
  %104 = load ptr, ptr %5, align 8, !tbaa !22
  %105 = getelementptr inbounds nuw %struct.key_value_info, ptr %104, i32 0, i32 3
  %106 = load i32, ptr %105, align 8, !tbaa !28
  %107 = call i32 @git_config_from_file_with_options(ptr noundef @git_config_include, ptr noundef %102, ptr noundef %103, i32 noundef %106, ptr noundef null)
  store i32 %107, ptr %8, align 4, !tbaa !13
  %108 = load ptr, ptr %7, align 8, !tbaa !83
  %109 = getelementptr inbounds nuw %struct.config_include_data, ptr %108, i32 0, i32 0
  %110 = load i32, ptr %109, align 8, !tbaa !221
  %111 = add nsw i32 %110, -1
  store i32 %111, ptr %109, align 8, !tbaa !221
  br label %112

112:                                              ; preds = %101, %71
  br label %113

113:                                              ; preds = %112, %68
  call void @strbuf_release(ptr noundef %9)
  %114 = load ptr, ptr %10, align 8, !tbaa !4
  call void @free(ptr noundef %114) #13
  %115 = load i32, ptr %8, align 4, !tbaa !13
  store i32 %115, ptr %4, align 4
  store i32 1, ptr %11, align 4
  br label %116

116:                                              ; preds = %113, %68, %23, %15
  call void @llvm.lifetime.end.p0(i64 8, ptr %10) #13
  call void @llvm.lifetime.end.p0(i64 24, ptr %9) #13
  call void @llvm.lifetime.end.p0(i64 4, ptr %8) #13
  %117 = load i32, ptr %4, align 4
  ret i32 %117
}