; Function Attrs: nounwind uwtable
define internal fastcc range(i32 -1, 1) i32 @handle_path_include(ptr noundef readonly %0, ptr noundef %1, ptr noundef %2) unnamed_addr #0 {
  %4 = alloca %struct.strbuf, align 8
  call void @llvm.lifetime.start.p0(i64 24, ptr nonnull %4) #30
  call void @llvm.memcpy.p0.p0.i64(ptr noundef nonnull align 8 dereferenceable(24) %4, ptr noundef nonnull align 8 dereferenceable(24) @__const.repo_config_copy_or_rename_section_in_file.copystr, i64 24, i1 false)
  %.not = icmp eq ptr %1, null
  br i1 %.not, label %5, label %10

5:                                                ; preds = %3
  %6 = load i32, ptr @git_gettext_enabled, align 4, !tbaa !14
  %.not4.i.i = icmp eq i32 %6, 0
  br i1 %.not4.i.i, label %config_error_nonbool.exit, label %7

7:                                                ; preds = %5
  %8 = tail call ptr @dcgettext(ptr noundef null, ptr noundef nonnull @.str.74, i32 noundef 5) #30
  br label %config_error_nonbool.exit

config_error_nonbool.exit:                        ; preds = %5, %7
  %.0.i.i = phi ptr [ %8, %7 ], [ @.str.74, %5 ]
  %9 = tail call i32 (ptr, ...) @error(ptr noundef %.0.i.i, ptr noundef nonnull @.str.206) #30
  br label %58

10:                                               ; preds = %3
  %11 = tail call ptr @interpolate_path(ptr noundef nonnull %1, i32 noundef 0) #30
  %.not38 = icmp eq ptr %11, null
  br i1 %.not38, label %12, label %17

12:                                               ; preds = %10
  %13 = load i32, ptr @git_gettext_enabled, align 4, !tbaa !14
  %.not4.i = icmp eq i32 %13, 0
  br i1 %.not4.i, label %_.exit, label %14

14:                                               ; preds = %12
  %15 = tail call ptr @dcgettext(ptr noundef null, ptr noundef nonnull @.str.209, i32 noundef 5) #30
  br label %_.exit

_.exit:                                           ; preds = %12, %14
  %.0.i = phi ptr [ %15, %14 ], [ @.str.209, %12 ]
  %16 = tail call i32 (ptr, ...) @error(ptr noundef %.0.i, ptr noundef nonnull %1) #30
  br label %58

17:                                               ; preds = %10
  %.val = load i8, ptr %11, align 1, !tbaa !4
  %.not57 = icmp eq i8 %.val, 47
  br i1 %.not57, label %37, label %18

18:                                               ; preds = %17
  %.not40 = icmp eq ptr %0, null
  br i1 %.not40, label %22, label %19

19:                                               ; preds = %18
  %20 = getelementptr inbounds nuw i8, ptr %0, i64 24
  %21 = load ptr, ptr %20, align 8, !tbaa !25
  %.not41 = icmp eq ptr %21, null
  br i1 %.not41, label %22, label %26

22:                                               ; preds = %19, %18
  %23 = load i32, ptr @git_gettext_enabled, align 4, !tbaa !14
  %.not4.i47 = icmp eq i32 %23, 0
  br i1 %.not4.i47, label %35, label %24

24:                                               ; preds = %22
  %25 = tail call ptr @dcgettext(ptr noundef null, ptr noundef nonnull @.str.210, i32 noundef 5) #30
  br label %35

26:                                               ; preds = %19
  %27 = tail call ptr @strrchr(ptr noundef nonnull readonly dereferenceable(1) %21, i32 noundef 47) #29
  %.not42 = icmp eq ptr %27, null
  br i1 %.not42, label %.thread, label %28

28:                                               ; preds = %26
  %29 = ptrtoint ptr %27 to i64
  %30 = ptrtoint ptr %21 to i64
  %reass.sub = sub i64 %29, %30
  %31 = add i64 %reass.sub, 1
  call void @strbuf_add(ptr noundef nonnull %4, ptr noundef nonnull %21, i64 noundef %31) #30
  br label %.thread

.thread:                                          ; preds = %26, %28
  %32 = call i64 @strlen(ptr noundef nonnull dereferenceable(1) %11) #29
  call void @strbuf_add(ptr noundef nonnull %4, ptr noundef nonnull %11, i64 noundef %32) #30
  %33 = getelementptr inbounds nuw i8, ptr %4, i64 16
  %34 = load ptr, ptr %33, align 8, !tbaa !13
  br label %37

35:                                               ; preds = %24, %22
  %.0.i48 = phi ptr [ %25, %24 ], [ @.str.210, %22 ]
  %36 = tail call i32 (ptr, ...) @error(ptr noundef %.0.i48) #30
  br label %57

37:                                               ; preds = %.thread, %17
  %.028 = phi ptr [ %11, %17 ], [ %34, %.thread ]
  %38 = call i32 @access_or_die(ptr noundef %.028, i32 noundef 4, i32 noundef 0) #30
  %.not43 = icmp eq i32 %38, 0
  br i1 %.not43, label %39, label %57

39:                                               ; preds = %37
  %40 = load i32, ptr %2, align 8, !tbaa !187
  %41 = add nsw i32 %40, 1
  store i32 %41, ptr %2, align 8, !tbaa !187
  %42 = icmp sgt i32 %40, 9
  br i1 %42, label %43, label %51

43:                                               ; preds = %39
  %44 = load i32, ptr @git_gettext_enabled, align 4, !tbaa !14
  %.not4.i50 = icmp eq i32 %44, 0
  br i1 %.not4.i50, label %_.exit52, label %45

45:                                               ; preds = %43
  %46 = call ptr @dcgettext(ptr noundef null, ptr noundef nonnull @include_depth_advice, i32 noundef 5) #30
  br label %_.exit52

_.exit52:                                         ; preds = %43, %45
  %.0.i51 = phi ptr [ %46, %45 ], [ @include_depth_advice, %43 ]
  %.not44 = icmp eq ptr %0, null
  br i1 %.not44, label %49, label %47

47:                                               ; preds = %_.exit52
  %48 = load ptr, ptr %0, align 8, !tbaa !20
  %.not45 = icmp eq ptr %48, null
  %spec.select = select i1 %.not45, ptr @.str.212, ptr %48
  br label %49

49:                                               ; preds = %47, %_.exit52
  %50 = phi ptr [ @.str.211, %_.exit52 ], [ %spec.select, %47 ]
  call void (ptr, ...) @die(ptr noundef %.0.i51, i32 noundef 10, ptr noundef %.028, ptr noundef nonnull %50) #31
  unreachable

51:                                               ; preds = %39
  %52 = getelementptr inbounds nuw i8, ptr %0, i64 16
  %53 = load i32, ptr %52, align 8, !tbaa !24
  %54 = call i32 @git_config_from_file_with_options(ptr noundef nonnull @git_config_include, ptr noundef %.028, ptr noundef nonnull %2, i32 noundef %53, ptr noundef null)
  %55 = load i32, ptr %2, align 8, !tbaa !187
  %56 = add nsw i32 %55, -1
  store i32 %56, ptr %2, align 8, !tbaa !187
  br label %57

57:                                               ; preds = %35, %37, %51
  %.2 = phi i32 [ 0, %37 ], [ %54, %51 ], [ -1, %35 ]
  call void @strbuf_release(ptr noundef nonnull %4) #30
  call void @free(ptr noundef nonnull %11) #30
  br label %58

58:                                               ; preds = %57, %_.exit, %config_error_nonbool.exit
  %.0 = phi i32 [ %.2, %57 ], [ -1, %_.exit ], [ -1, %config_error_nonbool.exit ]
  call void @llvm.lifetime.end.p0(i64 24, ptr nonnull %4) #30
  ret i32 %.0
}